; Function Attrs: nounwind uwtable
define void @lv_dropdown_set_text(ptr noundef %0, ptr noundef %1) local_unnamed_addr #0 {
  %3 = getelementptr inbounds nuw i8, ptr %0, i64 72
  %4 = load ptr, ptr %3, align 8, !tbaa !14
  %5 = icmp eq ptr %4, %1
  br i1 %5, label %7, label %6

6:                                                ; preds = %2
  store ptr %1, ptr %3, align 8, !tbaa !14
  tail call void @lv_obj_invalidate(ptr noundef nonnull %0) #7
  br label %7

7:                                                ; preds = %2, %6
  ret void
}